target datalayout = "e-m:e-p270:32:32-p271:32:32-p272:64:64-i64:64-i128:128-f80:128-n8:16:32:64-S128"
target triple = "x86_64-pc-linux-gnu"

%struct._generic_SUNLinearSolver = type { ptr, ptr, ptr }
%struct._generic_SUNLinearSolver_Ops = type { ptr, ptr, ptr, ptr, ptr, ptr, ptr, ptr, ptr, ptr, ptr, ptr, ptr, ptr, ptr }
%struct.IDAMemRec = type { ptr, double, ptr, ptr, i32, double, double, ptr, i32, i32, ptr, ptr, i32, i32, [6 x ptr], [6 x double], [6 x double], [6 x double], [6 x double], [6 x double], ptr, ptr, ptr, ptr, ptr, ptr, ptr, ptr, ptr, ptr, ptr, ptr, ptr, ptr, ptr, ptr, ptr, double, ptr, ptr, i32, i32, i32, i32, i32, i32, i32, i32, double, double, double, i32, double, i32, i32, i32, i32, i32, double, double, double, double, double, double, double, double, double, double, double, double, double, double, double, double, i32, i32, i32, i32, i64, double, double, double, double, double, double, double, double, double, i64, i64, i64, i64, i64, i64, i64, i64, i64, i64, i64, double, i32, i32, i32, i32, i32, ptr, i32, ptr, ptr, ptr, ptr, ptr, ptr, ptr, double, i32, ptr, i32, ptr, ptr, double, double, double, ptr, ptr, ptr, double, double, i32, i32, i64, ptr, i32, [6 x double], [5 x double], [6 x ptr], [6 x ptr] }
%struct.IDALsMemRec = type { i32, i32, i32, ptr, ptr, ptr, ptr, ptr, ptr, ptr, ptr, ptr, ptr, i32, double, double, double, i64, i64, i64, i64, i64, i64, i64, i64, i64, i64, i64, i64, i64, i64, double, i32, ptr, ptr, ptr, ptr, i32, ptr, ptr, ptr, ptr }

@.str = private unnamed_addr constant [112 x i8] c"generated/home/dtcxzyw/WorkSpace/Projects/compilers/llvm-opt-benchmark/bench/sundials/sundials/src/ida/ida_ls.c\00", align 1
@.str.1 = private unnamed_addr constant [27 x i8] c"Integrator memory is NULL.\00", align 1
@__func__.IDASetJacTimes = private unnamed_addr constant [15 x i8] c"IDASetJacTimes\00", align 1
@.str.17 = private unnamed_addr constant [69 x i8] c"SUNLinearSolver object does not support user-supplied ATimes routine\00", align 1
@.str.30 = private unnamed_addr constant [30 x i8] c"Linear solver memory is NULL.\00", align 1

; Function Attrs: nounwind uwtable
define i32 @idaLs_AccessLMem(ptr noundef %0, ptr noundef %1, ptr noundef %2, ptr noundef %3) #0 {
  %5 = alloca i32, align 4
  %6 = alloca ptr, align 8
  %7 = alloca ptr, align 8
  %8 = alloca ptr, align 8
  %9 = alloca ptr, align 8
  store ptr %0, ptr %6, align 8, !tbaa !3
  store ptr %1, ptr %7, align 8, !tbaa !117
  store ptr %2, ptr %8, align 8, !tbaa !119
  store ptr %3, ptr %9, align 8, !tbaa !121
  %10 = load ptr, ptr %6, align 8, !tbaa !3
  %11 = icmp eq ptr %10, null
  br i1 %11, label %12, label %14

12:                                               ; preds = %4
  %13 = load ptr, ptr %7, align 8, !tbaa !117
  call void (ptr, i32, i32, ptr, ptr, ptr, ...) @IDAProcessError(ptr noundef null, i32 noundef -1, i32 noundef 1766, ptr noundef %13, ptr noundef @.str, ptr noundef @.str.1)
  store i32 -1, ptr %5, align 4
  br label %32

14:                                               ; preds = %4
  %15 = load ptr, ptr %6, align 8, !tbaa !3
  %16 = load ptr, ptr %8, align 8, !tbaa !119
  store ptr %15, ptr %16, align 8, !tbaa !11
  %17 = load ptr, ptr %8, align 8, !tbaa !119
  %18 = load ptr, ptr %17, align 8, !tbaa !11
  %19 = getelementptr inbounds nuw %struct.IDAMemRec, ptr %18, i32 0, i32 113
  %20 = load ptr, ptr %19, align 8, !tbaa !75
  %21 = icmp eq ptr %20, null
  br i1 %21, label %22, label %26

22:                                               ; preds = %14
  %23 = load ptr, ptr %8, align 8, !tbaa !119
  %24 = load ptr, ptr %23, align 8, !tbaa !11
  %25 = load ptr, ptr %7, align 8, !tbaa !117
  call void (ptr, i32, i32, ptr, ptr, ptr, ...) @IDAProcessError(ptr noundef %24, i32 noundef -2, i32 noundef 1773, ptr noundef %25, ptr noundef @.str, ptr noundef @.str.30)
  store i32 -2, ptr %5, align 4
  br label %32

26:                                               ; preds = %14
  %27 = load ptr, ptr %8, align 8, !tbaa !119
  %28 = load ptr, ptr %27, align 8, !tbaa !11
  %29 = getelementptr inbounds nuw %struct.IDAMemRec, ptr %28, i32 0, i32 113
  %30 = load ptr, ptr %29, align 8, !tbaa !75
  %31 = load ptr, ptr %9, align 8, !tbaa !121
  store ptr %30, ptr %31, align 8, !tbaa !45
  store i32 0, ptr %5, align 4
  br label %32

32:                                               ; preds = %26, %22, %12
  %33 = load i32, ptr %5, align 4
  ret i32 %33
}

; Function Attrs: nounwind uwtable
define i32 @IDASetJacTimes(ptr noundef %0, ptr noundef %1, ptr noundef %2) #0 {
  %4 = alloca i32, align 4
  %5 = alloca ptr, align 8
  %6 = alloca ptr, align 8
  %7 = alloca ptr, align 8
  %8 = alloca ptr, align 8
  %9 = alloca ptr, align 8
  %10 = alloca i32, align 4
  %11 = alloca i32, align 4
  store ptr %0, ptr %5, align 8, !tbaa !3
  store ptr %1, ptr %6, align 8, !tbaa !3
  store ptr %2, ptr %7, align 8, !tbaa !3
  call void @llvm.lifetime.start.p0(i64 8, ptr %8) #7
  call void @llvm.lifetime.start.p0(i64 8, ptr %9) #7
  call void @llvm.lifetime.start.p0(i64 4, ptr %10) #7
  %12 = load ptr, ptr %5, align 8, !tbaa !3
  %13 = call i32 @idaLs_AccessLMem(ptr noundef %12, ptr noundef @__func__.IDASetJacTimes, ptr noundef %8, ptr noundef %9)
  store i32 %13, ptr %10, align 4, !tbaa !20
  %14 = load i32, ptr %10, align 4, !tbaa !20
  %15 = icmp ne i32 %14, 0
  br i1 %15, label %16, label %18

16:                                               ; preds = %3
  %17 = load i32, ptr %10, align 4, !tbaa !20
  store i32 %17, ptr %4, align 4
  store i32 1, ptr %11, align 4
  br label %62

18:                                               ; preds = %3
  %19 = load ptr, ptr %9, align 8, !tbaa !45
  %20 = getelementptr inbounds nuw %struct.IDALsMemRec, ptr %19, i32 0, i32 5
  %21 = load ptr, ptr %20, align 8, !tbaa !47
  %22 = getelementptr inbounds nuw %struct._generic_SUNLinearSolver, ptr %21, i32 0, i32 1
  %23 = load ptr, ptr %22, align 8, !tbaa !13
  %24 = getelementptr inbounds nuw %struct._generic_SUNLinearSolver_Ops, ptr %23, i32 0, i32 2
  %25 = load ptr, ptr %24, align 8, !tbaa !39
  %26 = icmp eq ptr %25, null
  br i1 %26, label %27, label %29

27:                                               ; preds = %18
  %28 = load ptr, ptr %8, align 8, !tbaa !11
  call void (ptr, i32, i32, ptr, ptr, ptr, ...) @IDAProcessError(ptr noundef %28, i32 noundef -3, i32 noundef 485, ptr noundef @__func__.IDASetJacTimes, ptr noundef @.str, ptr noundef @.str.17)
  store i32 -3, ptr %4, align 4
  store i32 1, ptr %11, align 4
  br label %62

29:                                               ; preds = %18
  %30 = load ptr, ptr %7, align 8, !tbaa !3
  %31 = icmp ne ptr %30, null
  br i1 %31, label %32, label %46

32:                                               ; preds = %29
  %33 = load ptr, ptr %9, align 8, !tbaa !45
  %34 = getelementptr inbounds nuw %struct.IDALsMemRec, ptr %33, i32 0, i32 37
  store i32 0, ptr %34, align 8, !tbaa !55
  %35 = load ptr, ptr %6, align 8, !tbaa !3
  %36 = load ptr, ptr %9, align 8, !tbaa !45
  %37 = getelementptr inbounds nuw %struct.IDALsMemRec, ptr %36, i32 0, i32 38
  store ptr %35, ptr %37, align 8, !tbaa !56
  %38 = load ptr, ptr %7, align 8, !tbaa !3
  %39 = load ptr, ptr %9, align 8, !tbaa !45
  %40 = getelementptr inbounds nuw %struct.IDALsMemRec, ptr %39, i32 0, i32 39
  store ptr %38, ptr %40, align 8, !tbaa !57
  %41 = load ptr, ptr %8, align 8, !tbaa !11
  %42 = getelementptr inbounds nuw %struct.IDAMemRec, ptr %41, i32 0, i32 3
  %43 = load ptr, ptr %42, align 8, !tbaa !64
  %44 = load ptr, ptr %9, align 8, !tbaa !45
  %45 = getelementptr inbounds nuw %struct.IDALsMemRec, ptr %44, i32 0, i32 41
  store ptr %43, ptr %45, align 8, !tbaa !60
  br label %61

46:                                               ; preds = %29
  %47 = load ptr, ptr %9, align 8, !tbaa !45
  %48 = getelementptr inbounds nuw %struct.IDALsMemRec, ptr %47, i32 0, i32 37
  store i32 1, ptr %48, align 8, !tbaa !55
  %49 = load ptr, ptr %9, align 8, !tbaa !45
  %50 = getelementptr inbounds nuw %struct.IDALsMemRec, ptr %49, i32 0, i32 38
  store ptr null, ptr %50, align 8, !tbaa !56
  %51 = load ptr, ptr %9, align 8, !tbaa !45
  %52 = getelementptr inbounds nuw %struct.IDALsMemRec, ptr %51, i32 0, i32 39
  store ptr @idaLsDQJtimes, ptr %52, align 8, !tbaa !57
  %53 = load ptr, ptr %8, align 8, !tbaa !11
  %54 = getelementptr inbounds nuw %struct.IDAMemRec, ptr %53, i32 0, i32 2
  %55 = load ptr, ptr %54, align 8, !tbaa !58
  %56 = load ptr, ptr %9, align 8, !tbaa !45
  %57 = getelementptr inbounds nuw %struct.IDALsMemRec, ptr %56, i32 0, i32 40
  store ptr %55, ptr %57, align 8, !tbaa !59
  %58 = load ptr, ptr %8, align 8, !tbaa !11
  %59 = load ptr, ptr %9, align 8, !tbaa !45
  %60 = getelementptr inbounds nuw %struct.IDALsMemRec, ptr %59, i32 0, i32 41
  store ptr %58, ptr %60, align 8, !tbaa !60
  br label %61

61:                                               ; preds = %46, %32
  store i32 0, ptr %4, align 4
  store i32 1, ptr %11, align 4
  br label %62

62:                                               ; preds = %61, %27, %16
  call void @llvm.lifetime.end.p0(i64 4, ptr %10) #7
  call void @llvm.lifetime.end.p0(i64 8, ptr %9) #7
  call void @llvm.lifetime.end.p0(i64 8, ptr %8) #7
  %63 = load i32, ptr %4, align 4
  ret i32 %63
}